target datalayout = "e-m:e-p270:32:32-p271:32:32-p272:64:64-i64:64-i128:128-f80:128-n8:16:32:64-S128"
target triple = "x86_64-pc-linux-gnu"

@.str.4 = private unnamed_addr constant [8 x i8] c"+Normal\00", align 1
@.str.5 = private unnamed_addr constant [8 x i8] c"-Normal\00", align 1
@.str.6 = private unnamed_addr constant [6 x i8] c"+Zero\00", align 1
@.str.7 = private unnamed_addr constant [6 x i8] c"-Zero\00", align 1
@.str.8 = private unnamed_addr constant [11 x i8] c"+Subnormal\00", align 1
@.str.9 = private unnamed_addr constant [11 x i8] c"-Subnormal\00", align 1
@.str.10 = private unnamed_addr constant [10 x i8] c"+Infinity\00", align 1
@.str.11 = private unnamed_addr constant [10 x i8] c"-Infinity\00", align 1
@.str.12 = private unnamed_addr constant [4 x i8] c"NaN\00", align 1
@.str.13 = private unnamed_addr constant [5 x i8] c"sNaN\00", align 1
@.str.14 = private unnamed_addr constant [8 x i8] c"Invalid\00", align 1

; Function Attrs: mustprogress nounwind uwtable
define ptr @uprv_decNumberClassToString_77(i32 noundef %0) #2 {
  %2 = alloca ptr, align 8
  %3 = alloca i32, align 4
  store i32 %0, ptr %3, align 4, !tbaa !110
  %4 = load i32, ptr %3, align 4, !tbaa !110
  %5 = icmp eq i32 %4, 8
  br i1 %5, label %6, label %7

6:                                                ; preds = %1
  store ptr @.str.4, ptr %2, align 8
  br label %44

7:                                                ; preds = %1
  %8 = load i32, ptr %3, align 4, !tbaa !110
  %9 = icmp eq i32 %8, 3
  br i1 %9, label %10, label %11

10:                                               ; preds = %7
  store ptr @.str.5, ptr %2, align 8
  br label %44

11:                                               ; preds = %7
  %12 = load i32, ptr %3, align 4, !tbaa !110
  %13 = icmp eq i32 %12, 6
  br i1 %13, label %14, label %15

14:                                               ; preds = %11
  store ptr @.str.6, ptr %2, align 8
  br label %44

15:                                               ; preds = %11
  %16 = load i32, ptr %3, align 4, !tbaa !110
  %17 = icmp eq i32 %16, 5
  br i1 %17, label %18, label %19

18:                                               ; preds = %15
  store ptr @.str.7, ptr %2, align 8
  br label %44

19:                                               ; preds = %15
  %20 = load i32, ptr %3, align 4, !tbaa !110
  %21 = icmp eq i32 %20, 7
  br i1 %21, label %22, label %23

22:                                               ; preds = %19
  store ptr @.str.8, ptr %2, align 8
  br label %44

23:                                               ; preds = %19
  %24 = load i32, ptr %3, align 4, !tbaa !110
  %25 = icmp eq i32 %24, 4
  br i1 %25, label %26, label %27

26:                                               ; preds = %23
  store ptr @.str.9, ptr %2, align 8
  br label %44

27:                                               ; preds = %23
  %28 = load i32, ptr %3, align 4, !tbaa !110
  %29 = icmp eq i32 %28, 9
  br i1 %29, label %30, label %31

30:                                               ; preds = %27
  store ptr @.str.10, ptr %2, align 8
  br label %44

31:                                               ; preds = %27
  %32 = load i32, ptr %3, align 4, !tbaa !110
  %33 = icmp eq i32 %32, 2
  br i1 %33, label %34, label %35

34:                                               ; preds = %31
  store ptr @.str.11, ptr %2, align 8
  br label %44

35:                                               ; preds = %31
  %36 = load i32, ptr %3, align 4, !tbaa !110
  %37 = icmp eq i32 %36, 1
  br i1 %37, label %38, label %39

38:                                               ; preds = %35
  store ptr @.str.12, ptr %2, align 8
  br label %44

39:                                               ; preds = %35
  %40 = load i32, ptr %3, align 4, !tbaa !110
  %41 = icmp eq i32 %40, 0
  br i1 %41, label %42, label %43

42:                                               ; preds = %39
  store ptr @.str.13, ptr %2, align 8
  br label %44

43:                                               ; preds = %39
  store ptr @.str.14, ptr %2, align 8
  br label %44

44:                                               ; preds = %43, %42, %38, %34, %30, %26, %22, %18, %14, %10, %6
  %45 = load ptr, ptr %2, align 8
  ret ptr %45
}